target datalayout = "e-m:e-p270:32:32-p271:32:32-p272:64:64-i64:64-i128:128-f80:128-n8:16:32:64-S128"
target triple = "x86_64-pc-linux-gnu"

%struct.TParser = type { ptr, i32, ptr, ptr, i8, i32, ptr, i8, i8, i8, ptr, i32, i32, i32 }
%struct.TParserPosition = type { i32, i32, i32, i32, i32, i32, ptr, ptr }

; Function Attrs: nounwind uwtable
define internal i32 @p_iseq(ptr noundef %0, i8 noundef signext %1) #0 {
  %3 = alloca ptr, align 8
  %4 = alloca i8, align 1
  store ptr %0, ptr %3, align 8
  store i8 %1, ptr %4, align 1
  %5 = load ptr, ptr %3, align 8
  %6 = getelementptr inbounds nuw %struct.TParser, ptr %5, i32 0, i32 6
  %7 = load ptr, ptr %6, align 8
  %8 = getelementptr inbounds nuw %struct.TParserPosition, ptr %7, i32 0, i32 2
  %9 = load i32, ptr %8, align 8
  %10 = icmp eq i32 %9, 1
  br i1 %10, label %11, label %27

11:                                               ; preds = %2
  %12 = load ptr, ptr %3, align 8
  %13 = getelementptr inbounds nuw %struct.TParser, ptr %12, i32 0, i32 0
  %14 = load ptr, ptr %13, align 8
  %15 = load ptr, ptr %3, align 8
  %16 = getelementptr inbounds nuw %struct.TParser, ptr %15, i32 0, i32 6
  %17 = load ptr, ptr %16, align 8
  %18 = getelementptr inbounds nuw %struct.TParserPosition, ptr %17, i32 0, i32 0
  %19 = load i32, ptr %18, align 8
  %20 = sext i32 %19 to i64
  %21 = getelementptr inbounds i8, ptr %14, i64 %20
  %22 = load i8, ptr %21, align 1
  %23 = sext i8 %22 to i32
  %24 = load i8, ptr %4, align 1
  %25 = sext i8 %24 to i32
  %26 = icmp eq i32 %23, %25
  br label %27

27:                                               ; preds = %11, %2
  %28 = phi i1 [ false, %2 ], [ %26, %11 ]
  %29 = select i1 %28, i32 1, i32 0
  ret i32 %29
}

; Function Attrs: nounwind uwtable
define internal i32 @p_iseqC(ptr noundef %0) #0 {
  %2 = alloca ptr, align 8
  store ptr %0, ptr %2, align 8
  %3 = load ptr, ptr %2, align 8
  %4 = load ptr, ptr %2, align 8
  %5 = getelementptr inbounds nuw %struct.TParser, ptr %4, i32 0, i32 9
  %6 = load i8, ptr %5, align 2
  %7 = call i32 @p_iseq(ptr noundef %3, i8 noundef signext %6)
  ret i32 %7
}