; Function Attrs: mustprogress nofree norecurse nosync nounwind willreturn memory(read, inaccessiblemem: none) uwtable
define internal range(i32 0, 2) i32 @p_iseqC(ptr noundef readonly captures(none) %0) #1 {
  %2 = getelementptr inbounds nuw i8, ptr %0, i64 40
  %3 = load ptr, ptr %2, align 8
  %4 = getelementptr inbounds nuw i8, ptr %3, i64 8
  %5 = load i32, ptr %4, align 8
  %6 = icmp eq i32 %5, 1
  br i1 %6, label %7, label %p_iseq.exit

7:                                                ; preds = %1
  %8 = getelementptr inbounds nuw i8, ptr %0, i64 50
  %9 = load i8, ptr %8, align 2
  %10 = load ptr, ptr %0, align 8
  %11 = load i32, ptr %3, align 8
  %12 = sext i32 %11 to i64
  %13 = getelementptr inbounds i8, ptr %10, i64 %12
  %14 = load i8, ptr %13, align 1
  %15 = icmp eq i8 %14, %9
  %16 = zext i1 %15 to i32
  br label %p_iseq.exit

p_iseq.exit:                                      ; preds = %1, %7
  %17 = phi i32 [ 0, %1 ], [ %16, %7 ]
  ret i32 %17
}